; Function Attrs: nounwind uwtable
define internal ptr @f_getitem(ptr noundef readonly captures(none) %0, i64 noundef %1) #0 {
  %3 = getelementptr inbounds nuw i8, ptr %0, i64 24
  %4 = load ptr, ptr %3, align 8, !tbaa !53
  %5 = getelementptr float, ptr %4, i64 %1
  %6 = load float, ptr %5, align 4, !tbaa !71
  %7 = fpext float %6 to double
  %8 = tail call ptr @PyFloat_FromDouble(double noundef %7) #11
  ret ptr %8
}